target datalayout = "e-m:e-p270:32:32-p271:32:32-p272:64:64-i64:64-i128:128-f80:128-n8:16:32:64-S128"
target triple = "x86_64-pc-linux-gnu"

; Function Attrs: inlinehint mustprogress nounwind uwtable
define internal noundef ptr @_ZL8lean_boxm(i64 noundef %0) #3 {
  %2 = alloca i64, align 8
  store i64 %0, ptr %2, align 8, !tbaa !83
  %3 = load i64, ptr %2, align 8, !tbaa !83
  %4 = shl i64 %3, 1
  %5 = or i64 %4, 1
  %6 = inttoptr i64 %5 to ptr
  ret ptr %6
}

; Function Attrs: inlinehint mustprogress nounwind uwtable
define internal noundef i64 @_ZL10lean_unboxP11lean_object(ptr noundef %0) #3 {
  %2 = alloca ptr, align 8
  store ptr %0, ptr %2, align 8, !tbaa !87
  %3 = load ptr, ptr %2, align 8, !tbaa !87
  %4 = ptrtoint ptr %3 to i64
  %5 = lshr i64 %4, 1
  ret i64 %5
}

; Function Attrs: alwaysinline mustprogress nounwind uwtable
define internal noundef zeroext i1 @_ZL14lean_is_scalarP11lean_object(ptr noundef %0) #8 {
  %2 = alloca ptr, align 8
  store ptr %0, ptr %2, align 8, !tbaa !87
  %3 = load ptr, ptr %2, align 8, !tbaa !87
  %4 = ptrtoint ptr %3 to i64
  %5 = and i64 %4, 1
  %6 = icmp eq i64 %5, 1
  ret i1 %6
}

; Function Attrs: inlinehint mustprogress uwtable
define internal noundef ptr @_ZL15lean_nat_shiftrP11lean_objectS0_(ptr noundef %0, ptr noundef %1) #4 {
  %3 = alloca ptr, align 8
  %4 = alloca ptr, align 8
  %5 = alloca ptr, align 8
  %6 = alloca i64, align 8
  %7 = alloca i64, align 8
  %8 = alloca i64, align 8
  store ptr %0, ptr %4, align 8, !tbaa !87
  store ptr %1, ptr %5, align 8, !tbaa !87
  %9 = load ptr, ptr %4, align 8, !tbaa !87
  %10 = call noundef zeroext i1 @_ZL14lean_is_scalarP11lean_object(ptr noundef %9)
  br i1 %10, label %11, label %14

11:                                               ; preds = %2
  %12 = load ptr, ptr %5, align 8, !tbaa !87
  %13 = call noundef zeroext i1 @_ZL14lean_is_scalarP11lean_object(ptr noundef %12)
  br label %14

14:                                               ; preds = %11, %2
  %15 = phi i1 [ false, %2 ], [ %13, %11 ]
  %16 = zext i1 %15 to i64
  %17 = call i64 @llvm.expect.i64(i64 %16, i64 1)
  %18 = icmp ne i64 %17, 0
  br i1 %18, label %19, label %35

19:                                               ; preds = %14
  call void @llvm.lifetime.start.p0(i64 8, ptr %6) #16
  %20 = load ptr, ptr %4, align 8, !tbaa !87
  %21 = call noundef i64 @_ZL10lean_unboxP11lean_object(ptr noundef %20)
  store i64 %21, ptr %6, align 8, !tbaa !83
  call void @llvm.lifetime.start.p0(i64 8, ptr %7) #16
  %22 = load ptr, ptr %5, align 8, !tbaa !87
  %23 = call noundef i64 @_ZL10lean_unboxP11lean_object(ptr noundef %22)
  store i64 %23, ptr %7, align 8, !tbaa !83
  call void @llvm.lifetime.start.p0(i64 8, ptr %8) #16
  %24 = load i64, ptr %7, align 8, !tbaa !83
  %25 = icmp ult i64 %24, 64
  br i1 %25, label %26, label %30

26:                                               ; preds = %19
  %27 = load i64, ptr %6, align 8, !tbaa !83
  %28 = load i64, ptr %7, align 8, !tbaa !83
  %29 = lshr i64 %27, %28
  br label %31

30:                                               ; preds = %19
  br label %31

31:                                               ; preds = %30, %26
  %32 = phi i64 [ %29, %26 ], [ 0, %30 ]
  store i64 %32, ptr %8, align 8, !tbaa !83
  %33 = load i64, ptr %8, align 8, !tbaa !83
  %34 = call noundef ptr @_ZL8lean_boxm(i64 noundef %33)
  store ptr %34, ptr %3, align 8
  call void @llvm.lifetime.end.p0(i64 8, ptr %8) #16
  call void @llvm.lifetime.end.p0(i64 8, ptr %7) #16
  call void @llvm.lifetime.end.p0(i64 8, ptr %6) #16
  br label %39

35:                                               ; preds = %14
  %36 = load ptr, ptr %4, align 8, !tbaa !87
  %37 = load ptr, ptr %5, align 8, !tbaa !87
  %38 = call ptr @lean_nat_big_shiftr(ptr noundef %36, ptr noundef %37)
  store ptr %38, ptr %3, align 8
  br label %39

39:                                               ; preds = %35, %31
  %40 = load ptr, ptr %3, align 8
  ret ptr %40
}