; Function Attrs: inlinehint mustprogress uwtable
define internal noundef ptr @_ZL15lean_nat_shiftrP11lean_objectS0_(ptr noundef %0, ptr noundef %1) #8 {
  %3 = ptrtoint ptr %0 to i64
  %4 = and i64 %3, 1
  %.not = icmp eq i64 %4, 0
  br i1 %.not, label %.critedge, label %5, !prof !304

5:                                                ; preds = %2
  %6 = ptrtoint ptr %1 to i64
  %7 = and i64 %6, 1
  %.not10 = icmp eq i64 %7, 0
  br i1 %.not10, label %.critedge, label %8, !prof !304

8:                                                ; preds = %5
  %9 = lshr i64 %3, 1
  %10 = lshr i64 %6, 1
  %11 = icmp ult ptr %1, inttoptr (i64 128 to ptr)
  %12 = lshr i64 %9, %10
  %13 = shl nuw i64 %12, 1
  %14 = or disjoint i64 %13, 1
  %15 = inttoptr i64 %14 to ptr
  %16 = select i1 %11, ptr %15, ptr inttoptr (i64 1 to ptr)
  br label %18

.critedge:                                        ; preds = %2, %5
  %17 = tail call ptr @lean_nat_big_shiftr(ptr noundef %0, ptr noundef %1)
  br label %18

18:                                               ; preds = %.critedge, %8
  %.0 = phi ptr [ %16, %8 ], [ %17, %.critedge ]
  ret ptr %.0
}